target datalayout = "e-m:e-p270:32:32-p271:32:32-p272:64:64-i64:64-i128:128-f80:128-n8:16:32:64-S128"
target triple = "x86_64-pc-linux-gnu"

%"struct.cv::ImageCollection::iterator" = type <{ ptr, i32, [4 x i8] }>

@_ZN2cv15ImageCollection8iteratorC1EPS0_ = unnamed_addr alias void (ptr, ptr), ptr @_ZN2cv15ImageCollection8iteratorC2EPS0_

; Function Attrs: mustprogress uwtable
define { ptr, i32 } @_ZN2cv15ImageCollection4Impl5beginEPS0_(ptr noundef nonnull align 8 dereferenceable(104) %0, ptr noundef %1) #5 align 2 {
  %3 = alloca %"struct.cv::ImageCollection::iterator", align 8
  %4 = alloca ptr, align 8
  %5 = alloca ptr, align 8
  store ptr %0, ptr %4, align 8, !tbaa !132
  store ptr %1, ptr %5, align 8, !tbaa !181
  %6 = load ptr, ptr %5, align 8, !tbaa !181
  call void @_ZN2cv15ImageCollection8iteratorC1EPS0_(ptr noundef nonnull align 8 dereferenceable(12) %3, ptr noundef %6)
  %7 = load { ptr, i32 }, ptr %3, align 8
  ret { ptr, i32 } %7
}