; Function Attrs: mustprogress uwtable
define { ptr, i32 } @_ZN2cv15ImageCollection4Impl5beginEPS0_(ptr noundef nonnull readnone align 8 captures(none) dereferenceable(104) %0, ptr noundef %1) local_unnamed_addr #4 align 2 {
  %3 = alloca %"struct.cv::ImageCollection::iterator", align 8
  call void @_ZN2cv15ImageCollection8iteratorC1EPS0_(ptr noundef nonnull align 8 dereferenceable(12) %3, ptr noundef %1)
  %.fca.0.load = load ptr, ptr %3, align 8
  %.fca.0.insert = insertvalue { ptr, i32 } poison, ptr %.fca.0.load, 0
  %.fca.1.gep = getelementptr inbounds nuw i8, ptr %3, i64 8
  %.fca.1.load = load i32, ptr %.fca.1.gep, align 8
  %.fca.1.insert = insertvalue { ptr, i32 } %.fca.0.insert, i32 %.fca.1.load, 1
  ret { ptr, i32 } %.fca.1.insert
}